target datalayout = "e-m:e-p270:32:32-p271:32:32-p272:64:64-i64:64-i128:128-f80:128-n8:16:32:64-S128"
target triple = "x86_64-pc-linux-gnu"

%"class.gmx::layout_right::mapping" = type { %"class.gmx::extents" }
%"class.gmx::extents" = type { %"struct.gmx::detail::extents_analyse" }
%"struct.gmx::detail::extents_analyse" = type { %"struct.gmx::detail::extents_analyse.0" }
%"struct.gmx::detail::extents_analyse.0" = type { %"struct.gmx::detail::extents_analyse.1" }
%"struct.gmx::detail::extents_analyse.1" = type { i8 }
%"class.gmx::basic_mdspan" = type { %"class.gmx::accessor_basic", %"class.gmx::layout_right::mapping", ptr }
%"class.gmx::accessor_basic" = type { i8 }
%"class.gmx::BasicVector" = type { [3 x float] }

; Function Attrs: mustprogress nounwind uwtable
define linkonce_odr noundef i64 @_ZN3gmx6detail15extents_analyseILi0EJEE6extentEm(i64 noundef %0) #0 comdat align 2 {
  %2 = alloca i64, align 8
  store i64 %0, ptr %2, align 8
  ret i64 1
}

; Function Attrs: mustprogress nounwind uwtable
define linkonce_odr noundef i64 @_ZNK3gmx6detail15extents_analyseILi1EJLl3EEE6extentEm(ptr noundef nonnull align 1 dereferenceable(1) %0, i64 noundef %1) #0 comdat align 2 {
  %3 = alloca ptr, align 8
  %4 = alloca i64, align 8
  store ptr %0, ptr %3, align 8
  store i64 %1, ptr %4, align 8
  %5 = load i64, ptr %4, align 8
  %6 = icmp eq i64 %5, 1
  br i1 %6, label %7, label %8

7:                                                ; preds = %2
  br label %11

8:                                                ; preds = %2
  %9 = load i64, ptr %4, align 8
  %10 = call noundef i64 @_ZN3gmx6detail15extents_analyseILi0EJEE6extentEm(i64 noundef %9) #6
  br label %11

11:                                               ; preds = %8, %7
  %12 = phi i64 [ 3, %7 ], [ %10, %8 ]
  ret i64 %12
}

; Function Attrs: noreturn nounwind uwtable
define linkonce_odr hidden void @__clang_call_terminate(ptr noundef %0) #1 comdat {
  %2 = call ptr @__cxa_begin_catch(ptr %0) #6
  call void @_ZSt9terminatev() #8
  unreachable
}

; Function Attrs: mustprogress nounwind uwtable
define linkonce_odr noundef i64 @_ZN3gmx12layout_right7mappingINS_7extentsIJLl3ELl3EEEEE6offsetEml(i64 noundef %0, i64 noundef %1) #0 comdat align 2 {
  %3 = alloca i64, align 8
  %4 = alloca i64, align 8
  store i64 %0, ptr %3, align 8
  store i64 %1, ptr %4, align 8
  %5 = load i64, ptr %4, align 8
  ret i64 %5
}

; Function Attrs: mustprogress nounwind uwtable
define linkonce_odr noundef i64 @_ZNK3gmx6detail15extents_analyseILi2EJLl3ELl3EEE6extentEm(ptr noundef nonnull align 1 dereferenceable(1) %0, i64 noundef %1) #0 comdat align 2 {
  %3 = alloca ptr, align 8
  %4 = alloca i64, align 8
  store ptr %0, ptr %3, align 8
  store i64 %1, ptr %4, align 8
  %5 = load ptr, ptr %3, align 8
  %6 = load i64, ptr %4, align 8
  %7 = icmp eq i64 %6, 2
  br i1 %7, label %8, label %9

8:                                                ; preds = %2
  br label %13

9:                                                ; preds = %2
  %10 = getelementptr inbounds %"struct.gmx::detail::extents_analyse", ptr %5, i32 0, i32 0
  %11 = load i64, ptr %4, align 8
  %12 = call noundef i64 @_ZNK3gmx6detail15extents_analyseILi1EJLl3EEE6extentEm(ptr noundef nonnull align 1 dereferenceable(1) %10, i64 noundef %11) #6
  br label %13

13:                                               ; preds = %9, %8
  %14 = phi i64 [ 3, %8 ], [ %12, %9 ]
  ret i64 %14
}

; Function Attrs: mustprogress nounwind uwtable
define linkonce_odr noundef i64 @_ZN3gmx7extentsIJLl3ELl3EEE4rankEv() #0 comdat align 2 {
  ret i64 2
}

; Function Attrs: mustprogress nounwind uwtable
define linkonce_odr noundef i64 @_ZNK3gmx12layout_right7mappingINS_7extentsIJLl3ELl3EEEEE6offsetIJEEElmllDpT_(ptr noundef nonnull align 1 dereferenceable(1) %0, i64 noundef %1, i64 noundef %2, i64 noundef %3) #0 comdat align 2 personality ptr @__gxx_personality_v0 {
  %5 = alloca ptr, align 8
  %6 = alloca i64, align 8
  %7 = alloca i64, align 8
  %8 = alloca i64, align 8
  store ptr %0, ptr %5, align 8
  store i64 %1, ptr %6, align 8
  store i64 %2, ptr %7, align 8
  store i64 %3, ptr %8, align 8
  %9 = load ptr, ptr %5, align 8
  %10 = load i64, ptr %6, align 8
  %11 = add i64 %10, 1
  %12 = load i64, ptr %7, align 8
  %13 = getelementptr inbounds %"class.gmx::layout_right::mapping", ptr %9, i32 0, i32 0
  %14 = load i64, ptr %6, align 8
  %15 = call noundef i64 @_ZNK3gmx7extentsIJLl3ELl3EEE6extentEm(ptr noundef nonnull align 1 dereferenceable(1) %13, i64 noundef %14) #6
  %16 = mul nsw i64 %12, %15
  %17 = load i64, ptr %8, align 8
  %18 = add nsw i64 %16, %17
  %19 = invoke noundef i64 @_ZN3gmx12layout_right7mappingINS_7extentsIJLl3ELl3EEEEE6offsetEml(i64 noundef %11, i64 noundef %18)
          to label %20 unwind label %21

20:                                               ; preds = %4
  ret i64 %19

21:                                               ; preds = %4
  %22 = landingpad { ptr, i32 }
          catch ptr null
  %23 = extractvalue { ptr, i32 } %22, 0
  call void @__clang_call_terminate(ptr %23) #8
  unreachable
}

; Function Attrs: mustprogress nounwind uwtable
define linkonce_odr noundef i64 @_ZNK3gmx7extentsIJLl3ELl3EEE6extentEm(ptr noundef nonnull align 1 dereferenceable(1) %0, i64 noundef %1) #0 comdat align 2 {
  %3 = alloca ptr, align 8
  %4 = alloca i64, align 8
  store ptr %0, ptr %3, align 8
  store i64 %1, ptr %4, align 8
  %5 = load ptr, ptr %3, align 8
  %6 = getelementptr inbounds %"class.gmx::extents", ptr %5, i32 0, i32 0
  %7 = call noundef i64 @_ZN3gmx7extentsIJLl3ELl3EEE4rankEv() #6
  %8 = load i64, ptr %4, align 8
  %9 = sub i64 %7, %8
  %10 = call noundef i64 @_ZNK3gmx6detail15extents_analyseILi2EJLl3ELl3EEE6extentEm(ptr noundef nonnull align 1 dereferenceable(1) %6, i64 noundef %9) #6
  ret i64 %10
}

; Function Attrs: mustprogress nounwind uwtable
define linkonce_odr noundef i64 @_ZNK3gmx12layout_right7mappingINS_7extentsIJLl3ELl3EEEEE6offsetIJiEEElmllDpT_(ptr noundef nonnull align 1 dereferenceable(1) %0, i64 noundef %1, i64 noundef %2, i64 noundef %3, i32 noundef %4) #0 comdat align 2 {
  %6 = alloca ptr, align 8
  %7 = alloca i64, align 8
  %8 = alloca i64, align 8
  %9 = alloca i64, align 8
  %10 = alloca i32, align 4
  store ptr %0, ptr %6, align 8
  store i64 %1, ptr %7, align 8
  store i64 %2, ptr %8, align 8
  store i64 %3, ptr %9, align 8
  store i32 %4, ptr %10, align 4
  %11 = load ptr, ptr %6, align 8
  %12 = load i64, ptr %7, align 8
  %13 = add i64 %12, 1
  %14 = load i64, ptr %8, align 8
  %15 = getelementptr inbounds %"class.gmx::layout_right::mapping", ptr %11, i32 0, i32 0
  %16 = load i64, ptr %7, align 8
  %17 = call noundef i64 @_ZNK3gmx7extentsIJLl3ELl3EEE6extentEm(ptr noundef nonnull align 1 dereferenceable(1) %15, i64 noundef %16) #6
  %18 = mul nsw i64 %14, %17
  %19 = load i64, ptr %9, align 8
  %20 = add nsw i64 %18, %19
  %21 = load i32, ptr %10, align 4
  %22 = sext i32 %21 to i64
  %23 = call noundef i64 @_ZNK3gmx12layout_right7mappingINS_7extentsIJLl3ELl3EEEEE6offsetIJEEElmllDpT_(ptr noundef nonnull align 1 dereferenceable(1) %11, i64 noundef %13, i64 noundef %20, i64 noundef %22) #6
  ret i64 %23
}

; Function Attrs: mustprogress nounwind uwtable
define linkonce_odr noundef nonnull align 4 dereferenceable(4) ptr @_ZNK3gmx14accessor_basicIKfE6accessEPS1_l(ptr noundef nonnull align 1 dereferenceable(1) %0, ptr noundef %1, i64 noundef %2) #0 comdat align 2 {
  %4 = alloca ptr, align 8
  %5 = alloca ptr, align 8
  %6 = alloca i64, align 8
  store ptr %0, ptr %4, align 8
  store ptr %1, ptr %5, align 8
  store i64 %2, ptr %6, align 8
  %7 = load ptr, ptr %5, align 8
  %8 = load i64, ptr %6, align 8
  %9 = getelementptr inbounds float, ptr %7, i64 %8
  ret ptr %9
}

; Function Attrs: mustprogress nounwind uwtable
define linkonce_odr noundef i64 @_ZNK3gmx12layout_right7mappingINS_7extentsIJLl3ELl3EEEEEclIJiiEEENSt9enable_ifIXeqsZT_clL_ZNS3_4rankEvEEElE4typeEDpT_(ptr noundef nonnull align 1 dereferenceable(1) %0, i32 noundef %1, i32 noundef %2) #0 comdat align 2 {
  %4 = alloca ptr, align 8
  %5 = alloca i32, align 4
  %6 = alloca i32, align 4
  store ptr %0, ptr %4, align 8
  store i32 %1, ptr %5, align 4
  store i32 %2, ptr %6, align 4
  %7 = load ptr, ptr %4, align 8
  %8 = load i32, ptr %5, align 4
  %9 = sext i32 %8 to i64
  %10 = load i32, ptr %6, align 4
  %11 = call noundef i64 @_ZNK3gmx12layout_right7mappingINS_7extentsIJLl3ELl3EEEEE6offsetIJiEEElmllDpT_(ptr noundef nonnull align 1 dereferenceable(1) %7, i64 noundef 0, i64 noundef 0, i64 noundef %9, i32 noundef %10) #6
  ret i64 %11
}

; Function Attrs: mustprogress nounwind uwtable
define linkonce_odr noundef nonnull align 4 dereferenceable(4) ptr @_ZN3gmx11BasicVectorIfEixEi(ptr noundef nonnull align 4 dereferenceable(12) %0, i32 noundef %1) #0 comdat align 2 {
  %3 = alloca ptr, align 8
  %4 = alloca i32, align 4
  store ptr %0, ptr %3, align 8
  store i32 %1, ptr %4, align 4
  %5 = load ptr, ptr %3, align 8
  %6 = getelementptr inbounds %"class.gmx::BasicVector", ptr %5, i32 0, i32 0
  %7 = load i32, ptr %4, align 4
  %8 = sext i32 %7 to i64
  %9 = getelementptr inbounds [3 x float], ptr %6, i64 0, i64 %8
  ret ptr %9
}

; Function Attrs: mustprogress nounwind uwtable
define linkonce_odr noundef nonnull align 4 dereferenceable(4) ptr @_ZNK3gmx12basic_mdspanIKfNS_7extentsIJLl3ELl3EEEENS_12layout_rightENS_14accessor_basicIS1_EEEclIJiiEEENSt9enable_ifIXeqsZT_clL_ZNS3_4rankEvEEERS1_E4typeEDpT_(ptr noundef nonnull align 8 dereferenceable(16) %0, i32 noundef %1, i32 noundef %2) #0 comdat align 2 {
  %4 = alloca ptr, align 8
  %5 = alloca i32, align 4
  %6 = alloca i32, align 4
  store ptr %0, ptr %4, align 8
  store i32 %1, ptr %5, align 4
  store i32 %2, ptr %6, align 4
  %7 = load ptr, ptr %4, align 8
  %8 = getelementptr inbounds %"class.gmx::basic_mdspan", ptr %7, i32 0, i32 0
  %9 = getelementptr inbounds %"class.gmx::basic_mdspan", ptr %7, i32 0, i32 2
  %10 = load ptr, ptr %9, align 8
  %11 = getelementptr inbounds %"class.gmx::basic_mdspan", ptr %7, i32 0, i32 1
  %12 = load i32, ptr %5, align 4
  %13 = load i32, ptr %6, align 4
  %14 = call noundef i64 @_ZNK3gmx12layout_right7mappingINS_7extentsIJLl3ELl3EEEEEclIJiiEEENSt9enable_ifIXeqsZT_clL_ZNS3_4rankEvEEElE4typeEDpT_(ptr noundef nonnull align 1 dereferenceable(1) %11, i32 noundef %12, i32 noundef %13) #6
  %15 = call noundef nonnull align 4 dereferenceable(4) ptr @_ZNK3gmx14accessor_basicIKfE6accessEPS1_l(ptr noundef nonnull align 1 dereferenceable(1) %8, ptr noundef %10, i64 noundef %14) #6
  ret ptr %15
}

; Function Attrs: mustprogress uwtable
define void @_ZN3gmx20matrixVectorMultiplyENS_12basic_mdspanIKfNS_7extentsIJLl3ELl3EEEENS_12layout_rightENS_14accessor_basicIS1_EEEEPNS_11BasicVectorIfEE(ptr %0, ptr noundef %1) #4 {
  %3 = alloca %"class.gmx::basic_mdspan", align 8
  %4 = alloca ptr, align 8
  %5 = alloca float, align 4
  %6 = alloca float, align 4
  %7 = getelementptr inbounds i8, ptr %3, i64 8
  store ptr %0, ptr %7, align 8
  store ptr %1, ptr %4, align 8
  %8 = call noundef nonnull align 4 dereferenceable(4) ptr @_ZNK3gmx12basic_mdspanIKfNS_7extentsIJLl3ELl3EEEENS_12layout_rightENS_14accessor_basicIS1_EEEclIJiiEEENSt9enable_ifIXeqsZT_clL_ZNS3_4rankEvEEERS1_E4typeEDpT_(ptr noundef nonnull align 8 dereferenceable(16) %3, i32 noundef 0, i32 noundef 0) #6
  %9 = load float, ptr %8, align 4
  %10 = load ptr, ptr %4, align 8
  %11 = call noundef nonnull align 4 dereferenceable(4) ptr @_ZN3gmx11BasicVectorIfEixEi(ptr noundef nonnull align 4 dereferenceable(12) %10, i32 noundef 0)
  %12 = load float, ptr %11, align 4
  %13 = call noundef nonnull align 4 dereferenceable(4) ptr @_ZNK3gmx12basic_mdspanIKfNS_7extentsIJLl3ELl3EEEENS_12layout_rightENS_14accessor_basicIS1_EEEclIJiiEEENSt9enable_ifIXeqsZT_clL_ZNS3_4rankEvEEERS1_E4typeEDpT_(ptr noundef nonnull align 8 dereferenceable(16) %3, i32 noundef 0, i32 noundef 1) #6
  %14 = load float, ptr %13, align 4
  %15 = load ptr, ptr %4, align 8
  %16 = call noundef nonnull align 4 dereferenceable(4) ptr @_ZN3gmx11BasicVectorIfEixEi(ptr noundef nonnull align 4 dereferenceable(12) %15, i32 noundef 1)
  %17 = load float, ptr %16, align 4
  %18 = fmul float %14, %17
  %19 = call float @llvm.fmuladd.f32(float %9, float %12, float %18)
  %20 = call noundef nonnull align 4 dereferenceable(4) ptr @_ZNK3gmx12basic_mdspanIKfNS_7extentsIJLl3ELl3EEEENS_12layout_rightENS_14accessor_basicIS1_EEEclIJiiEEENSt9enable_ifIXeqsZT_clL_ZNS3_4rankEvEEERS1_E4typeEDpT_(ptr noundef nonnull align 8 dereferenceable(16) %3, i32 noundef 0, i32 noundef 2) #6
  %21 = load float, ptr %20, align 4
  %22 = load ptr, ptr %4, align 8
  %23 = call noundef nonnull align 4 dereferenceable(4) ptr @_ZN3gmx11BasicVectorIfEixEi(ptr noundef nonnull align 4 dereferenceable(12) %22, i32 noundef 2)
  %24 = load float, ptr %23, align 4
  %25 = call float @llvm.fmuladd.f32(float %21, float %24, float %19)
  store float %25, ptr %5, align 4
  %26 = call noundef nonnull align 4 dereferenceable(4) ptr @_ZNK3gmx12basic_mdspanIKfNS_7extentsIJLl3ELl3EEEENS_12layout_rightENS_14accessor_basicIS1_EEEclIJiiEEENSt9enable_ifIXeqsZT_clL_ZNS3_4rankEvEEERS1_E4typeEDpT_(ptr noundef nonnull align 8 dereferenceable(16) %3, i32 noundef 1, i32 noundef 0) #6
  %27 = load float, ptr %26, align 4
  %28 = load ptr, ptr %4, align 8
  %29 = call noundef nonnull align 4 dereferenceable(4) ptr @_ZN3gmx11BasicVectorIfEixEi(ptr noundef nonnull align 4 dereferenceable(12) %28, i32 noundef 0)
  %30 = load float, ptr %29, align 4
  %31 = call noundef nonnull align 4 dereferenceable(4) ptr @_ZNK3gmx12basic_mdspanIKfNS_7extentsIJLl3ELl3EEEENS_12layout_rightENS_14accessor_basicIS1_EEEclIJiiEEENSt9enable_ifIXeqsZT_clL_ZNS3_4rankEvEEERS1_E4typeEDpT_(ptr noundef nonnull align 8 dereferenceable(16) %3, i32 noundef 1, i32 noundef 1) #6
  %32 = load float, ptr %31, align 4
  %33 = load ptr, ptr %4, align 8
  %34 = call noundef nonnull align 4 dereferenceable(4) ptr @_ZN3gmx11BasicVectorIfEixEi(ptr noundef nonnull align 4 dereferenceable(12) %33, i32 noundef 1)
  %35 = load float, ptr %34, align 4
  %36 = fmul float %32, %35
  %37 = call float @llvm.fmuladd.f32(float %27, float %30, float %36)
  %38 = call noundef nonnull align 4 dereferenceable(4) ptr @_ZNK3gmx12basic_mdspanIKfNS_7extentsIJLl3ELl3EEEENS_12layout_rightENS_14accessor_basicIS1_EEEclIJiiEEENSt9enable_ifIXeqsZT_clL_ZNS3_4rankEvEEERS1_E4typeEDpT_(ptr noundef nonnull align 8 dereferenceable(16) %3, i32 noundef 1, i32 noundef 2) #6
  %39 = load float, ptr %38, align 4
  %40 = load ptr, ptr %4, align 8
  %41 = call noundef nonnull align 4 dereferenceable(4) ptr @_ZN3gmx11BasicVectorIfEixEi(ptr noundef nonnull align 4 dereferenceable(12) %40, i32 noundef 2)
  %42 = load float, ptr %41, align 4
  %43 = call float @llvm.fmuladd.f32(float %39, float %42, float %37)
  store float %43, ptr %6, align 4
  %44 = call noundef nonnull align 4 dereferenceable(4) ptr @_ZNK3gmx12basic_mdspanIKfNS_7extentsIJLl3ELl3EEEENS_12layout_rightENS_14accessor_basicIS1_EEEclIJiiEEENSt9enable_ifIXeqsZT_clL_ZNS3_4rankEvEEERS1_E4typeEDpT_(ptr noundef nonnull align 8 dereferenceable(16) %3, i32 noundef 2, i32 noundef 0) #6
  %45 = load float, ptr %44, align 4
  %46 = load ptr, ptr %4, align 8
  %47 = call noundef nonnull align 4 dereferenceable(4) ptr @_ZN3gmx11BasicVectorIfEixEi(ptr noundef nonnull align 4 dereferenceable(12) %46, i32 noundef 0)
  %48 = load float, ptr %47, align 4
  %49 = call noundef nonnull align 4 dereferenceable(4) ptr @_ZNK3gmx12basic_mdspanIKfNS_7extentsIJLl3ELl3EEEENS_12layout_rightENS_14accessor_basicIS1_EEEclIJiiEEENSt9enable_ifIXeqsZT_clL_ZNS3_4rankEvEEERS1_E4typeEDpT_(ptr noundef nonnull align 8 dereferenceable(16) %3, i32 noundef 2, i32 noundef 1) #6
  %50 = load float, ptr %49, align 4
  %51 = load ptr, ptr %4, align 8
  %52 = call noundef nonnull align 4 dereferenceable(4) ptr @_ZN3gmx11BasicVectorIfEixEi(ptr noundef nonnull align 4 dereferenceable(12) %51, i32 noundef 1)
  %53 = load float, ptr %52, align 4
  %54 = fmul float %50, %53
  %55 = call float @llvm.fmuladd.f32(float %45, float %48, float %54)
  %56 = call noundef nonnull align 4 dereferenceable(4) ptr @_ZNK3gmx12basic_mdspanIKfNS_7extentsIJLl3ELl3EEEENS_12layout_rightENS_14accessor_basicIS1_EEEclIJiiEEENSt9enable_ifIXeqsZT_clL_ZNS3_4rankEvEEERS1_E4typeEDpT_(ptr noundef nonnull align 8 dereferenceable(16) %3, i32 noundef 2, i32 noundef 2) #6
  %57 = load float, ptr %56, align 4
  %58 = load ptr, ptr %4, align 8
  %59 = call noundef nonnull align 4 dereferenceable(4) ptr @_ZN3gmx11BasicVectorIfEixEi(ptr noundef nonnull align 4 dereferenceable(12) %58, i32 noundef 2)
  %60 = load float, ptr %59, align 4
  %61 = call float @llvm.fmuladd.f32(float %57, float %60, float %55)
  %62 = load ptr, ptr %4, align 8
  %63 = call noundef nonnull align 4 dereferenceable(4) ptr @_ZN3gmx11BasicVectorIfEixEi(ptr noundef nonnull align 4 dereferenceable(12) %62, i32 noundef 2)
  store float %61, ptr %63, align 4
  %64 = load float, ptr %5, align 4
  %65 = load ptr, ptr %4, align 8
  %66 = call noundef nonnull align 4 dereferenceable(4) ptr @_ZN3gmx11BasicVectorIfEixEi(ptr noundef nonnull align 4 dereferenceable(12) %65, i32 noundef 0)
  store float %64, ptr %66, align 4
  %67 = load float, ptr %6, align 4
  %68 = load ptr, ptr %4, align 8
  %69 = call noundef nonnull align 4 dereferenceable(4) ptr @_ZN3gmx11BasicVectorIfEixEi(ptr noundef nonnull align 4 dereferenceable(12) %68, i32 noundef 1)
  store float %67, ptr %69, align 4
  ret void
}