; Function Attrs: mustprogress nofree norecurse nosync nounwind willreturn memory(argmem: readwrite) uwtable
define void @_ZN3gmx20matrixVectorMultiplyENS_12basic_mdspanIKfNS_7extentsIJLl3ELl3EEEENS_12layout_rightENS_14accessor_basicIS1_EEEEPNS_11BasicVectorIfEE(ptr nocapture readonly %0, ptr nocapture noundef %1) local_unnamed_addr #0 personality ptr @__gxx_personality_v0 {
  %3 = load float, ptr %0, align 4
  %4 = load float, ptr %1, align 4
  %5 = getelementptr i8, ptr %0, i64 4
  %6 = load float, ptr %5, align 4
  %7 = getelementptr inbounds i8, ptr %1, i64 4
  %8 = load float, ptr %7, align 4
  %9 = fmul float %6, %8
  %10 = tail call float @llvm.fmuladd.f32(float %3, float %4, float %9)
  %11 = getelementptr i8, ptr %0, i64 8
  %12 = load float, ptr %11, align 4
  %13 = getelementptr inbounds i8, ptr %1, i64 8
  %14 = load float, ptr %13, align 4
  %15 = tail call float @llvm.fmuladd.f32(float %12, float %14, float %10)
  %16 = getelementptr i8, ptr %0, i64 12
  %17 = load float, ptr %16, align 4
  %18 = getelementptr i8, ptr %0, i64 16
  %19 = load float, ptr %18, align 4
  %20 = fmul float %8, %19
  %21 = tail call float @llvm.fmuladd.f32(float %17, float %4, float %20)
  %22 = getelementptr i8, ptr %0, i64 20
  %23 = load float, ptr %22, align 4
  %24 = tail call float @llvm.fmuladd.f32(float %23, float %14, float %21)
  %25 = getelementptr i8, ptr %0, i64 24
  %26 = load float, ptr %25, align 4
  %27 = getelementptr i8, ptr %0, i64 28
  %28 = load float, ptr %27, align 4
  %29 = fmul float %8, %28
  %30 = tail call float @llvm.fmuladd.f32(float %26, float %4, float %29)
  %31 = getelementptr i8, ptr %0, i64 32
  %32 = load float, ptr %31, align 4
  %33 = tail call float @llvm.fmuladd.f32(float %32, float %14, float %30)
  store float %33, ptr %13, align 4
  store float %15, ptr %1, align 4
  store float %24, ptr %7, align 4
  ret void
}